target datalayout = "e-m:e-p270:32:32-p271:32:32-p272:64:64-i64:64-i128:128-f80:128-n8:16:32:64-S128"
target triple = "x86_64-pc-linux-gnu"

%struct.RBasic = type { i64, i64 }
%struct.RArray = type { %struct.RBasic, %union.anon }
%union.anon = type { %struct.anon }
%struct.anon = type { i64, %union.anon.0, ptr }
%union.anon.0 = type { i64 }

@rb_cArray = dso_local global i64 0, align 8

; Function Attrs: inlinehint nounwind sspstrong willreturn memory(read) uwtable
define internal i64 @RB_FL_TEST_RAW(i64 noundef %0, i64 noundef %1) #2 {
  %3 = alloca i64, align 8
  %4 = alloca i64, align 8
  store i64 %0, ptr %3, align 8, !tbaa !7
  store i64 %1, ptr %4, align 8, !tbaa !7
  %5 = load i64, ptr %3, align 8, !tbaa !7
  %6 = inttoptr i64 %5 to ptr
  %7 = getelementptr inbounds nuw %struct.RBasic, ptr %6, i32 0, i32 0
  %8 = load i64, ptr %7, align 8, !tbaa !11
  %9 = load i64, ptr %4, align 8, !tbaa !7
  %10 = and i64 %8, %9
  ret i64 %10
}

; Function Attrs: inlinehint nounwind sspstrong willreturn memory(read) uwtable
define internal i64 @RARRAY_EMBED_LEN(i64 noundef %0) #2 {
  %2 = alloca i64, align 8
  %3 = alloca i64, align 8
  store i64 %0, ptr %2, align 8, !tbaa !7
  call void @llvm.lifetime.start.p0(i64 8, ptr %3) #27
  %4 = load i64, ptr %2, align 8, !tbaa !7
  %5 = inttoptr i64 %4 to ptr
  %6 = getelementptr inbounds nuw %struct.RBasic, ptr %5, i32 0, i32 0
  %7 = load i64, ptr %6, align 8, !tbaa !11
  store i64 %7, ptr %3, align 8, !tbaa !7
  %8 = load i64, ptr %3, align 8, !tbaa !7
  %9 = and i64 %8, 4161536
  store i64 %9, ptr %3, align 8, !tbaa !7
  %10 = load i64, ptr %3, align 8, !tbaa !7
  %11 = lshr i64 %10, 15
  store i64 %11, ptr %3, align 8, !tbaa !7
  %12 = load i64, ptr %3, align 8, !tbaa !7
  call void @llvm.lifetime.end.p0(i64 8, ptr %3) #27
  ret i64 %12
}

; Function Attrs: inlinehint nounwind sspstrong willreturn memory(read) uwtable
define internal zeroext i1 @RB_FL_ANY_RAW(i64 noundef %0, i64 noundef %1) #2 {
  %3 = alloca i64, align 8
  %4 = alloca i64, align 8
  store i64 %0, ptr %3, align 8, !tbaa !7
  store i64 %1, ptr %4, align 8, !tbaa !7
  %5 = load i64, ptr %3, align 8, !tbaa !7
  %6 = load i64, ptr %4, align 8, !tbaa !7
  %7 = call i64 @RB_FL_TEST_RAW(i64 noundef %5, i64 noundef %6) #26
  %8 = icmp ne i64 %7, 0
  ret i1 %8
}

; Function Attrs: inlinehint nounwind sspstrong uwtable
define internal zeroext i1 @ARY_EMBED_P(i64 noundef %0) #1 {
  %2 = alloca i64, align 8
  store i64 %0, ptr %2, align 8, !tbaa !7
  %3 = load i64, ptr %2, align 8, !tbaa !7
  %4 = call i64 @RB_FL_TEST_RAW(i64 noundef %3, i64 noundef 8192) #26
  %5 = icmp ne i64 %4, 0
  ret i1 %5
}

; Function Attrs: nounwind sspstrong uwtable
define internal void @ary_memcpy(i64 noundef %0, i64 noundef %1, i64 noundef %2, ptr noundef %3) #0 {
  %5 = alloca i64, align 8
  %6 = alloca i64, align 8
  %7 = alloca i64, align 8
  %8 = alloca ptr, align 8
  store i64 %0, ptr %5, align 8, !tbaa !7
  store i64 %1, ptr %6, align 8, !tbaa !7
  store i64 %2, ptr %7, align 8, !tbaa !7
  store ptr %3, ptr %8, align 8, !tbaa !14
  %9 = load i64, ptr %5, align 8, !tbaa !7
  %10 = load i64, ptr %6, align 8, !tbaa !7
  %11 = load i64, ptr %7, align 8, !tbaa !7
  %12 = load ptr, ptr %8, align 8, !tbaa !14
  %13 = load i64, ptr %5, align 8, !tbaa !7
  call void @ary_memcpy0(i64 noundef %9, i64 noundef %10, i64 noundef %11, ptr noundef %12, i64 noundef %13)
  ret void
}

; Function Attrs: inlinehint nounwind sspstrong willreturn memory(read) uwtable
define internal ptr @rb_array_const_ptr(i64 noundef %0) #2 {
  %2 = alloca ptr, align 8
  %3 = alloca i64, align 8
  store i64 %0, ptr %3, align 8, !tbaa !7
  %4 = load i64, ptr %3, align 8, !tbaa !7
  %5 = call zeroext i1 @RB_FL_ANY_RAW(i64 noundef %4, i64 noundef 8192) #26
  br i1 %5, label %6, label %11

6:                                                ; preds = %1
  %7 = load i64, ptr %3, align 8, !tbaa !7
  %8 = inttoptr i64 %7 to ptr
  %9 = getelementptr inbounds nuw %struct.RArray, ptr %8, i32 0, i32 1
  %10 = getelementptr inbounds [1 x i64], ptr %9, i64 0, i64 0
  store ptr %10, ptr %2, align 8
  br label %17

11:                                               ; preds = %1
  %12 = load i64, ptr %3, align 8, !tbaa !7
  %13 = inttoptr i64 %12 to ptr
  %14 = getelementptr inbounds nuw %struct.RArray, ptr %13, i32 0, i32 1
  %15 = getelementptr inbounds nuw %struct.anon, ptr %14, i32 0, i32 2
  %16 = load ptr, ptr %15, align 8, !tbaa !13
  store ptr %16, ptr %2, align 8
  br label %17

17:                                               ; preds = %11, %6
  %18 = load ptr, ptr %2, align 8
  ret ptr %18
}

; Function Attrs: nounwind sspstrong uwtable
define dso_local i64 @rb_ary_new_capa(i64 noundef %0) #0 {
  %2 = alloca i64, align 8
  store i64 %0, ptr %2, align 8, !tbaa !7
  %3 = load i64, ptr @rb_cArray, align 8, !tbaa !7
  %4 = load i64, ptr %2, align 8, !tbaa !7
  %5 = call i64 @ary_new(i64 noundef %3, i64 noundef %4)
  ret i64 %5
}

; Function Attrs: inlinehint nounwind sspstrong willreturn memory(read) uwtable
define internal i64 @rb_array_len(i64 noundef %0) #2 {
  %2 = alloca i64, align 8
  %3 = alloca i64, align 8
  store i64 %0, ptr %3, align 8, !tbaa !7
  %4 = load i64, ptr %3, align 8, !tbaa !7
  %5 = call zeroext i1 @RB_FL_ANY_RAW(i64 noundef %4, i64 noundef 8192) #26
  br i1 %5, label %6, label %9

6:                                                ; preds = %1
  %7 = load i64, ptr %3, align 8, !tbaa !7
  %8 = call i64 @RARRAY_EMBED_LEN(i64 noundef %7) #26
  store i64 %8, ptr %2, align 8
  br label %15

9:                                                ; preds = %1
  %10 = load i64, ptr %3, align 8, !tbaa !7
  %11 = inttoptr i64 %10 to ptr
  %12 = getelementptr inbounds nuw %struct.RArray, ptr %11, i32 0, i32 1
  %13 = getelementptr inbounds nuw %struct.anon, ptr %12, i32 0, i32 0
  %14 = load i64, ptr %13, align 8, !tbaa !13
  store i64 %14, ptr %2, align 8
  br label %15

15:                                               ; preds = %9, %6
  %16 = load i64, ptr %2, align 8
  ret i64 %16
}

; Function Attrs: nounwind sspstrong uwtable
define dso_local i64 @rb_ary_dup(i64 noundef %0) #0 {
  %2 = alloca i64, align 8
  %3 = alloca i64, align 8
  %4 = alloca i64, align 8
  %5 = alloca i64, align 8
  store i64 %0, ptr %2, align 8, !tbaa !7
  call void @llvm.lifetime.start.p0(i64 8, ptr %3) #27
  %6 = load i64, ptr %2, align 8, !tbaa !7
  %7 = call i64 @rb_array_len(i64 noundef %6) #26
  store i64 %7, ptr %3, align 8, !tbaa !7
  call void @llvm.lifetime.start.p0(i64 8, ptr %4) #27
  %8 = load i64, ptr %3, align 8, !tbaa !7
  %9 = call i64 @rb_ary_new_capa(i64 noundef %8)
  store i64 %9, ptr %4, align 8, !tbaa !7
  %10 = load i64, ptr %4, align 8, !tbaa !7
  %11 = load i64, ptr %3, align 8, !tbaa !7
  %12 = load i64, ptr %2, align 8, !tbaa !7
  %13 = call ptr @rb_array_const_ptr(i64 noundef %12) #26
  call void @ary_memcpy(i64 noundef %10, i64 noundef 0, i64 noundef %11, ptr noundef %13)
  br label %14

14:                                               ; preds = %1
  %15 = load i64, ptr %4, align 8, !tbaa !7
  %16 = call zeroext i1 @ARY_EMBED_P(i64 noundef %15)
  br i1 %16, label %17, label %34

17:                                               ; preds = %14
  br label %18

18:                                               ; preds = %17
  call void @llvm.lifetime.start.p0(i64 8, ptr %5) #27
  %19 = load i64, ptr %3, align 8, !tbaa !7
  store i64 %19, ptr %5, align 8, !tbaa !7
  %20 = load i64, ptr %4, align 8, !tbaa !7
  %21 = inttoptr i64 %20 to ptr
  %22 = getelementptr inbounds nuw %struct.RBasic, ptr %21, i32 0, i32 0
  %23 = load i64, ptr %22, align 8, !tbaa !11
  %24 = and i64 %23, -4161537
  store i64 %24, ptr %22, align 8, !tbaa !11
  %25 = load i64, ptr %5, align 8, !tbaa !7
  %26 = shl i64 %25, 15
  %27 = load i64, ptr %4, align 8, !tbaa !7
  %28 = inttoptr i64 %27 to ptr
  %29 = getelementptr inbounds nuw %struct.RBasic, ptr %28, i32 0, i32 0
  %30 = load i64, ptr %29, align 8, !tbaa !11
  %31 = or i64 %30, %26
  store i64 %31, ptr %29, align 8, !tbaa !11
  call void @llvm.lifetime.end.p0(i64 8, ptr %5) #27
  br label %32

32:                                               ; preds = %18
  br label %33

33:                                               ; preds = %32
  br label %43

34:                                               ; preds = %14
  br label %35

35:                                               ; preds = %34
  %36 = load i64, ptr %3, align 8, !tbaa !7
  %37 = load i64, ptr %4, align 8, !tbaa !7
  %38 = inttoptr i64 %37 to ptr
  %39 = getelementptr inbounds nuw %struct.RArray, ptr %38, i32 0, i32 1
  %40 = getelementptr inbounds nuw %struct.anon, ptr %39, i32 0, i32 0
  store i64 %36, ptr %40, align 8, !tbaa !13
  br label %41

41:                                               ; preds = %35
  br label %42

42:                                               ; preds = %41
  br label %43

43:                                               ; preds = %42, %33
  br label %44

44:                                               ; preds = %43
  br label %45

45:                                               ; preds = %44
  %46 = load i64, ptr %4, align 8, !tbaa !7
  call void @llvm.lifetime.end.p0(i64 8, ptr %4) #27
  call void @llvm.lifetime.end.p0(i64 8, ptr %3) #27
  ret i64 %46
}

; Function Attrs: nounwind sspstrong uwtable
define internal i64 @rb_ary_compact(i64 noundef %0) #0 {
  %2 = alloca i64, align 8
  store i64 %0, ptr %2, align 8, !tbaa !7
  %3 = load i64, ptr %2, align 8, !tbaa !7
  %4 = call i64 @rb_ary_dup(i64 noundef %3)
  store i64 %4, ptr %2, align 8, !tbaa !7
  %5 = load i64, ptr %2, align 8, !tbaa !7
  %6 = call i64 @rb_ary_compact_bang(i64 noundef %5)
  %7 = load i64, ptr %2, align 8, !tbaa !7
  ret i64 %7
}